; Function Attrs: mustprogress uwtable
define hidden void @_ZNK10params_ref7get_ratEPKcRK8rational(ptr noalias sret(%class.rational) align 8 %agg.result, ptr nocapture noundef nonnull readonly align 8 dereferenceable(8) %this, ptr noundef %k, ptr noundef nonnull align 8 dereferenceable(32) %_default) local_unnamed_addr #3 align 2 {
entry:
  %0 = load ptr, ptr %this, align 8
  %tobool.not = icmp eq ptr %0, null
  br i1 %tobool.not, label %cond.false, label %cond.true

cond.true:                                        ; preds = %entry
  tail call void @_ZNK6params7get_ratEPKcRK8rational(ptr sret(%class.rational) align 8 %agg.result, ptr noundef nonnull align 8 dereferenceable(12) %0, ptr noundef %k, ptr noundef nonnull align 8 dereferenceable(32) %_default)
  br label %cond.end

cond.false:                                       ; preds = %entry
  store i32 0, ptr %agg.result, align 8
  %m_kind.i.i.i = getelementptr inbounds i8, ptr %agg.result, i64 4
  %bf.load.i.i.i = load i8, ptr %m_kind.i.i.i, align 4
  %bf.clear3.i.i.i = and i8 %bf.load.i.i.i, -4
  store i8 %bf.clear3.i.i.i, ptr %m_kind.i.i.i, align 4
  %m_ptr.i.i.i = getelementptr inbounds i8, ptr %agg.result, i64 8
  store ptr null, ptr %m_ptr.i.i.i, align 8
  %m_den.i.i = getelementptr inbounds i8, ptr %agg.result, i64 16
  store i32 1, ptr %m_den.i.i, align 8
  %m_kind.i1.i.i = getelementptr inbounds i8, ptr %agg.result, i64 20
  %bf.load.i2.i.i = load i8, ptr %m_kind.i1.i.i, align 4
  %bf.clear3.i3.i.i = and i8 %bf.load.i2.i.i, -4
  store i8 %bf.clear3.i3.i.i, ptr %m_kind.i1.i.i, align 4
  %m_ptr.i4.i.i = getelementptr inbounds i8, ptr %agg.result, i64 24
  store ptr null, ptr %m_ptr.i4.i.i, align 8
  %1 = load ptr, ptr @_ZN8rational13g_mpq_managerE, align 8
  %m_kind.i.i.i.i.i = getelementptr inbounds i8, ptr %_default, i64 4
  %bf.load.i.i.i.i.i = load i8, ptr %m_kind.i.i.i.i.i, align 4
  %bf.clear.i.i.i.i.i = and i8 %bf.load.i.i.i.i.i, 1
  %cmp.i.i.i.i.i = icmp eq i8 %bf.clear.i.i.i.i.i, 0
  br i1 %cmp.i.i.i.i.i, label %if.then.i.i.i.i, label %if.else.i.i.i.i

if.then.i.i.i.i:                                  ; preds = %cond.false
  %2 = load i32, ptr %_default, align 8
  store i32 %2, ptr %agg.result, align 8
  store i8 %bf.clear3.i.i.i, ptr %m_kind.i.i.i, align 4
  br label %_ZN11mpq_managerILb1EE3setER3mpzRKS1_.exit.i.i

if.else.i.i.i.i:                                  ; preds = %cond.false
  tail call void @_ZN11mpz_managerILb1EE7big_setER3mpzRKS1_(ptr noundef nonnull align 8 dereferenceable(600) %1, ptr noundef nonnull align 8 dereferenceable(16) %agg.result, ptr noundef nonnull align 8 dereferenceable(16) %_default)
  br label %_ZN11mpq_managerILb1EE3setER3mpzRKS1_.exit.i.i

_ZN11mpq_managerILb1EE3setER3mpzRKS1_.exit.i.i:   ; preds = %if.else.i.i.i.i, %if.then.i.i.i.i
  %m_den3.i.i = getelementptr inbounds i8, ptr %_default, i64 16
  %m_kind.i.i.i3.i.i = getelementptr inbounds i8, ptr %_default, i64 20
  %bf.load.i.i.i4.i.i = load i8, ptr %m_kind.i.i.i3.i.i, align 4
  %bf.clear.i.i.i5.i.i = and i8 %bf.load.i.i.i4.i.i, 1
  %cmp.i.i.i6.i.i = icmp eq i8 %bf.clear.i.i.i5.i.i, 0
  br i1 %cmp.i.i.i6.i.i, label %if.then.i.i8.i.i, label %if.else.i.i7.i.i

if.then.i.i8.i.i:                                 ; preds = %_ZN11mpq_managerILb1EE3setER3mpzRKS1_.exit.i.i
  %3 = load i32, ptr %m_den3.i.i, align 8
  store i32 %3, ptr %m_den.i.i, align 8
  %bf.load.i.i10.i.i = load i8, ptr %m_kind.i1.i.i, align 4
  %bf.clear.i.i11.i.i = and i8 %bf.load.i.i10.i.i, -2
  store i8 %bf.clear.i.i11.i.i, ptr %m_kind.i1.i.i, align 4
  br label %cond.end

if.else.i.i7.i.i:                                 ; preds = %_ZN11mpq_managerILb1EE3setER3mpzRKS1_.exit.i.i
  tail call void @_ZN11mpz_managerILb1EE7big_setER3mpzRKS1_(ptr noundef nonnull align 8 dereferenceable(600) %1, ptr noundef nonnull align 8 dereferenceable(16) %m_den.i.i, ptr noundef nonnull align 8 dereferenceable(16) %m_den3.i.i)
  br label %cond.end

cond.end:                                         ; preds = %if.else.i.i7.i.i, %if.then.i.i8.i.i, %cond.true
  ret void
}